; Function Attrs: mustprogress uwtable
define hidden void @_ZN5array6solver16apply_sort_cnstrEPN3euf5enodeEP4sort(ptr noundef nonnull align 8 dereferenceable(536) %0, ptr noundef %1, ptr readnone captures(none) %2) unnamed_addr #3 align 2 {
  %4 = getelementptr inbounds nuw i8, ptr %0, i64 12
  %5 = load i32, ptr %4, align 4, !tbaa !31
  %6 = getelementptr inbounds nuw i8, ptr %1, i64 88
  %7 = load i32, ptr %6, align 8
  %8 = icmp ugt i32 %7, -257
  br i1 %8, label %_ZNK3euf5enode10get_th_varEi.exit.thread.i, label %.preheader.i.i.i.preheader

.preheader.i.i.i.preheader:                       ; preds = %3
  %9 = shl i32 %7, 24
  %10 = ashr exact i32 %9, 24
  %11 = icmp eq i32 %5, %10
  br i1 %11, label %_ZN5array6solver10ensure_varEPN3euf5enodeE.exit, label %.lr.ph

.preheader.i.ithread-pre-split.i:                 ; preds = %.lr.ph
  %.pr.i = load i32, ptr %16, align 8
  %12 = shl i32 %.pr.i, 24
  %13 = ashr exact i32 %12, 24
  %14 = icmp eq i32 %5, %13
  br i1 %14, label %_ZNK3euf5enode10get_th_varEi.exit.i, label %.lr.ph

.lr.ph:                                           ; preds = %.preheader.i.i.i.preheader, %.preheader.i.ithread-pre-split.i
  %.0.i.i.i3 = phi ptr [ %16, %.preheader.i.ithread-pre-split.i ], [ %6, %.preheader.i.i.i.preheader ]
  %15 = getelementptr inbounds nuw i8, ptr %.0.i.i.i3, i64 8
  %16 = load ptr, ptr %15, align 8, !tbaa !51
  %.not.i.i.i = icmp eq ptr %16, null
  br i1 %.not.i.i.i, label %_ZNK3euf5enode10get_th_varEi.exit.thread.i, label %.preheader.i.ithread-pre-split.i, !llvm.loop !54

_ZNK3euf5enode10get_th_varEi.exit.i:              ; preds = %.preheader.i.ithread-pre-split.i
  %17 = icmp ugt i32 %.pr.i, -257
  br i1 %17, label %_ZNK3euf5enode10get_th_varEi.exit.thread.i, label %_ZN5array6solver10ensure_varEPN3euf5enodeE.exit

_ZNK3euf5enode10get_th_varEi.exit.thread.i:       ; preds = %.lr.ph, %_ZNK3euf5enode10get_th_varEi.exit.i, %3
  %18 = load ptr, ptr %0, align 8, !tbaa !56
  %19 = getelementptr inbounds nuw i8, ptr %18, i64 528
  %20 = load ptr, ptr %19, align 8
  %21 = tail call noundef i32 %20(ptr noundef nonnull align 8 dereferenceable(536) %0, ptr noundef nonnull %1)
  %22 = load ptr, ptr %1, align 8, !tbaa !58
  %23 = getelementptr inbounds nuw i8, ptr %22, i64 4
  %24 = load i32, ptr %23, align 4
  %25 = and i32 %24, 65535
  %26 = icmp eq i32 %25, 2
  br i1 %26, label %_Z9is_lambdaPK3ast.exit.i, label %_ZN5array6solver10ensure_varEPN3euf5enodeE.exit

_Z9is_lambdaPK3ast.exit.i:                        ; preds = %_ZNK3euf5enode10get_th_varEi.exit.thread.i
  %27 = getelementptr inbounds nuw i8, ptr %22, i64 16
  %28 = load i32, ptr %27, align 8, !tbaa !68
  %29 = icmp eq i32 %28, 2
  br i1 %29, label %30, label %_ZN5array6solver10ensure_varEPN3euf5enodeE.exit

30:                                               ; preds = %_Z9is_lambdaPK3ast.exit.i
  tail call void @_ZN5array6solver21internalize_lambda_ehEPN3euf5enodeE(ptr noundef nonnull align 8 dereferenceable(536) %0, ptr noundef nonnull %1)
  br label %_ZN5array6solver10ensure_varEPN3euf5enodeE.exit

_ZN5array6solver10ensure_varEPN3euf5enodeE.exit:  ; preds = %.preheader.i.i.i.preheader, %_ZNK3euf5enode10get_th_varEi.exit.i, %_ZNK3euf5enode10get_th_varEi.exit.thread.i, %_Z9is_lambdaPK3ast.exit.i, %30
  ret void
}